(dp0
S'users'
p1
(dp2
S'nklasse'
p3
(dp4
S'sups'
p5
(lp6
sS'user_id'
p7
g3
sS'friends_list'
p8
(lp9
sS'full_name'
p10
S'Yo'
p11
ssS'user2'
p12
(dp13
S'sups'
p14
(lp15
sS'user_id'
p16
g12
sS'friends_list'
p17
(lp18
sS'full_name'
p19
S'White Chedda'
p20
ssS'user3'
p21
(dp22
S'sups'
p23
(lp24
sS'user_id'
p25
g21
sS'full_name'
p26
S'The King'
p27
sS'friends_list'
p28
(lp29
ssS'user1'
p30
(dp31
S'sups'
p32
(lp33
sS'user_id'
p34
g30
sS'full_name'
p35
S'Julian ReyRey'
p36
sS'friends_list'
p37
(lp38
ssVtest88
p39
(dp40
S'sups'
p41
(lp42
sS'user_id'
p43
g39
sS'friends_list'
p44
(lp45
sS'full_name'
p46
Vdjr
p47
ssS'Foo'
p48
(dp49
S'sups'
p50
(lp51
sS'user_id'
p52
g48
sS'full_name'
p53
S'bar'
p54
sS'friends_list'
p55
(lp56
ssS'farnsworth'
p57
(dp58
S'sups'
p59
(lp60
(dp61
S'date'
p62
V28/3/2015
p63
sS'sup_id'
p64
I1427582039060
sS'sender_id'
p65
S'djreynol'
p66
sa(dp67
S'date'
p68
V28/3/2015
p69
sS'sup_id'
p70
I1427582098344
sS'sender_id'
p71
S'djreynol'
p72
sa(dp73
S'date'
p74
V28/3/2015
p75
sS'sup_id'
p76
I1427582204649
sS'sender_id'
p77
S'djreynol'
p78
sasS'user_id'
p79
g57
sS'friends_list'
p80
(lp81
sS'full_name'
p82
S'My farnsworth'
p83
ssS'djreynol'
p84
(dp85
S'sups'
p86
(lp87
(dp88
S'date'
p89
V23/3/2015
p90
sS'sup_id'
p91
I1427136292027
sS'sender_id'
p92
S'djreynol'
p93
sa(dp94
S'date'
p95
V23/3/2015
p96
sS'sup_id'
p97
I1427137516076
sS'sender_id'
p98
S'djreynol'
p99
sa(dp100
S'date'
p101
V23/3/2015
p102
sS'sup_id'
p103
I1427137525677
sS'sender_id'
p104
S'djreynol'
p105
sa(dp106
S'date'
p107
V23/3/2015
p108
sS'sup_id'
p109
I1427139084250
sS'sender_id'
p110
S'djreynol'
p111
sa(dp112
S'date'
p113
V28/3/2015
p114
sS'sup_id'
p115
I1427582580296
sS'sender_id'
p116
S'newguy2'
p117
sa(dp118
S'date'
p119
V28/3/2015
p120
sS'sup_id'
p121
I1427582761172
sS'sender_id'
p122
S'ndklasse'
p123
sa(dp124
S'date'
p125
V28/3/2015
p126
sS'sup_id'
p127
I1427583262632
sS'sender_id'
p128
S'ndklasse'
p129
sa(dp130
S'date'
p131
V28/3/2015
p132
sS'sup_id'
p133
I1427583360335
sS'sender_id'
p134
S'ndklasse'
p135
sa(dp136
S'date'
p137
V28/3/2015
p138
sS'sup_id'
p139
I1427583366354
sS'sender_id'
p140
S'ndklasse'
p141
sa(dp142
S'date'
p143
V28/3/2015
p144
sS'sup_id'
p145
I1427583385453
sS'sender_id'
p146
S'ndklasse'
p147
sa(dp148
S'date'
p149
V28/3/2015
p150
sS'sup_id'
p151
I1427583895697
sS'sender_id'
p152
S'ndklasse'
p153
sa(dp154
S'date'
p155
V28/3/2015
p156
sS'sup_id'
p157
I1427583965893
sS'sender_id'
p158
S'ndklasse'
p159
sa(dp160
S'date'
p161
V28/3/2015
p162
sS'sup_id'
p163
I1427584238150
sS'sender_id'
p164
S'ndklasse'
p165
sasS'user_id'
p166
g84
sS'full_name'
p167
S'Dan Reynolds'
p168
sS'friends_list'
p169
(lp170
Vdjreynol
p171
aVfarnsworth
p172
aVtest66
p173
assS'newguy'
p174
(dp175
S'sups'
p176
(lp177
sS'user_id'
p178
g174
sS'friends_list'
p179
(lp180
sS'full_name'
p181
S'Dan'
p182
ssS'test66'
p183
(dp184
S'sups'
p185
(lp186
(dp187
S'date'
p188
V23/3/2015
p189
sS'sup_id'
p190
I1427140248163
sS'sender_id'
p191
S'test66'
p192
sa(dp193
S'date'
p194
V28/3/2015
p195
sS'sup_id'
p196
I1427582115854
sS'sender_id'
p197
S'djreynol'
p198
sa(dp199
S'date'
p200
V28/3/2015
p201
sS'sup_id'
p202
I1427582254290
sS'sender_id'
p203
S'djreynol'
p204
sa(dp205
S'date'
p206
V28/3/2015
p207
sS'sup_id'
p208
I1427582274794
sS'sender_id'
p209
S'djreynol'
p210
sa(dp211
S'date'
p212
V28/3/2015
p213
sS'sup_id'
p214
I1427582323391
sS'sender_id'
p215
S'djreynol'
p216
sasS'user_id'
p217
g183
sS'friends_list'
p218
(lp219
Vtest66
p220
asS'full_name'
p221
S'Heroes'
p222
ssS'test66 '
p223
(dp224
S'sups'
p225
(lp226
sS'user_id'
p227
g223
sS'full_name'
p228
S'Heroes'
p229
sS'friends_list'
p230
(lp231
ssVtest68
p232
(dp233
S'sups'
p234
(lp235
sS'user_id'
p236
g232
sS'friends_list'
p237
(lp238
sS'full_name'
p239
VReynolds
p240
ssVtest69
p241
(dp242
S'sups'
p243
(lp244
sS'user_id'
p245
g241
sS'friends_list'
p246
(lp247
sS'full_name'
p248
VReynolds
p249
ssS'reyrey'
p250
(dp251
S'sups'
p252
(lp253
(dp254
S'date'
p255
V23/3/2015
p256
sS'sup_id'
p257
I1427139150503
sS'sender_id'
p258
S'reyrey'
p259
sasS'user_id'
p260
g250
sS'full_name'
p261
S'DJ Rey Rey'
p262
sS'friends_list'
p263
(lp264
Vdjreynol
p265
aVreyrey
p266
assS'test67'
p267
(dp268
S'sups'
p269
(lp270
sS'user_id'
p271
g267
sS'full_name'
p272
S'hh'
p273
sS'friends_list'
p274
(lp275
ssS'ndklasse'
p276
(dp277
S'sups'
p278
(lp279
(dp280
S'date'
p281
V28/3/2015
p282
sS'sup_id'
p283
I1427583632058
sS'sender_id'
p284
S'ndklasse'
p285
sa(dp286
S'date'
p287
V28/3/2015
p288
sS'sup_id'
p289
I1427583637376
sS'sender_id'
p290
S'ndklasse'
p291
sa(dp292
S'date'
p293
V28/3/2015
p294
sS'sup_id'
p295
I1427583638539
sS'sender_id'
p296
S'ndklasse'
p297
sa(dp298
S'date'
p299
V28/3/2015
p300
sS'sup_id'
p301
I1427583649331
sS'sender_id'
p302
S'ndklasse'
p303
sa(dp304
S'date'
p305
V28/3/2015
p306
sS'sup_id'
p307
I1427583650404
sS'sender_id'
p308
S'ndklasse'
p309
sa(dp310
S'date'
p311
V28/3/2015
p312
sS'sup_id'
p313
I1427583651456
sS'sender_id'
p314
S'ndklasse'
p315
sa(dp316
S'date'
p317
V28/3/2015
p318
sS'sup_id'
p319
I1427583851844
sS'sender_id'
p320
S'ndklasse'
p321
sa(dp322
S'date'
p323
V28/3/2015
p324
sS'sup_id'
p325
I1427583962181
sS'sender_id'
p326
S'ndklasse'
p327
sa(dp328
S'date'
p329
V28/3/2015
p330
sS'sup_id'
p331
I1427583965894
sS'sender_id'
p332
S'ndklasse'
p333
sa(dp334
S'date'
p335
V28/3/2015
p336
sS'sup_id'
p337
I1427584238151
sS'sender_id'
p338
S'ndklasse'
p339
sasS'user_id'
p340
g276
sS'friends_list'
p341
(lp342
Vdjreynol
p343
aVndklasse
p344
asS'full_name'
p345
S'Nik Klassen'
p346
ssVtest99
p347
(dp348
S'sups'
p349
(lp350
sS'user_id'
p351
g347
sS'friends_list'
p352
(lp353
sS'full_name'
p354
VDJ
p355
ssS'HeyNik'
p356
(dp357
S'sups'
p358
(lp359
sS'user_id'
p360
g356
sS'friends_list'
p361
(lp362
sS'full_name'
p363
S'Nik'
p364
ssS'newguy2'
p365
(dp366
S'sups'
p367
(lp368
sS'user_id'
p369
g365
sS'full_name'
p370
S'Dan'
p371
sS'friends_list'
p372
(lp373
Vdjreynol
p374
assS'Rohan'
p375
(dp376
S'sups'
p377
(lp378
sS'user_id'
p379
g375
sS'friends_list'
p380
(lp381
VRohan
p382
asS'full_name'
p383
S'Riders of'
p384
ssS'kjreynol'
p385
(dp386
S'sups'
p387
(lp388
sS'user_id'
p389
g385
sS'friends_list'
p390
(lp391
sS'full_name'
p392
S'D'
p393
ssS'Farnsworth'
p394
(dp395
S'sups'
p396
(lp397
sS'user_id'
p398
g394
sS'friends_list'
p399
(lp400
sS'full_name'
p401
S'Nik Klassen'
p402
ssVtest71
p403
(dp404
S'sups'
p405
(lp406
sS'user_id'
p407
g403
sS'friends_list'
p408
(lp409
sS'full_name'
p410
Vtester
p411
ssVtest70
p412
(dp413
S'sups'
p414
(lp415
sS'user_id'
p416
g412
sS'friends_list'
p417
(lp418
sS'full_name'
p419
Vdjrey
p420
sss.