(dp0
S'users'
p1
(dp2
S'user3'
p3
(dp4
S'sups'
p5
(lp6
sS'user_id'
p7
g3
sS'friends_list'
p8
(lp9
sS'full_name'
p10
S'The King'
p11
ssS'user1'
p12
(dp13
S'sups'
p14
(lp15
sS'user_id'
p16
g12
sS'friends_list'
p17
(lp18
sS'full_name'
p19
S'Julian ReyRey'
p20
ssS'user2'
p21
(dp22
S'sups'
p23
(lp24
sS'user_id'
p25
g21
sS'full_name'
p26
S'White Chedda'
p27
sS'friends_list'
p28
(lp29
ssS'djreynol'
p30
(dp31
S'sups'
p32
(lp33
sS'user_id'
p34
g30
sS'friends_list'
p35
(lp36
sS'full_name'
p37
S'Dan Reynolds'
p38
ssS'ndklasse'
p39
(dp40
S'sups'
p41
(lp42
(dp43
S'date'
p44
V2015-03-22T15:57:02.315Z
p45
sS'sup_id'
p46
I1
sS'sender_id'
p47
S'djreynol'
p48
sa(dp49
S'date'
p50
V2015-03-22T16:36:15.064Z
p51
sS'sup_id'
p52
I1
sS'sender_id'
p53
S'djreynol'
p54
sa(dp55
S'date'
p56
V2015-03-22T16:37:03.463Z
p57
sS'sup_id'
p58
I1
sS'sender_id'
p59
S'djreynol'
p60
sa(dp61
S'date'
p62
V2015-03-22T16:37:45.748Z
p63
sS'sup_id'
p64
I1
sS'sender_id'
p65
S'djreynol'
p66
sa(dp67
S'date'
p68
V2015-03-22T16:38:12.058Z
p69
sS'sup_id'
p70
I1
sS'sender_id'
p71
S'djreynol'
p72
sa(dp73
S'date'
p74
V2015-03-22T16:39:17.484Z
p75
sS'sup_id'
p76
I1
sS'sender_id'
p77
S'djreynol'
p78
sasS'user_id'
p79
g39
sS'full_name'
p80
S'Nik Klassen'
p81
sS'friends_list'
p82
(lp83
sss.