(dp0
S'users'
p1
(dp2
S'djreynol'
p3
(dp4
S'sups'
p5
(lp6
(dp7
S'date'
p8
V22/3/2015
p9
sS'sup_id'
p10
I1427058794256
sS'sender_id'
p11
S'djreynol'
p12
sa(dp13
S'date'
p14
V22/3/2015
p15
sS'sup_id'
p16
I1427058925094
sS'sender_id'
p17
S'djreynol'
p18
sa(dp19
S'date'
p20
V22/3/2015
p21
sS'sup_id'
p22
I1427058926654
sS'sender_id'
p23
S'djreynol'
p24
sasS'user_id'
p25
g3
sS'full_name'
p26
S'Dan Reynolds'
p27
sS'friends_list'
p28
(lp29
Vdjreynol
p30
assS'ndklasse'
p31
(dp32
S'sups'
p33
(lp34
(dp35
S'date'
p36
V2015-03-22T15:57:02.315Z
p37
sS'sup_id'
p38
I1
sS'sender_id'
p39
S'djreynol'
p40
sa(dp41
S'date'
p42
V2015-03-22T16:36:15.064Z
p43
sS'sup_id'
p44
I1
sS'sender_id'
p45
S'djreynol'
p46
sa(dp47
S'date'
p48
V2015-03-22T16:37:03.463Z
p49
sS'sup_id'
p50
I1
sS'sender_id'
p51
S'djreynol'
p52
sa(dp53
S'date'
p54
V2015-03-22T16:37:45.748Z
p55
sS'sup_id'
p56
I1
sS'sender_id'
p57
S'djreynol'
p58
sa(dp59
S'date'
p60
V2015-03-22T16:38:12.058Z
p61
sS'sup_id'
p62
I1
sS'sender_id'
p63
S'djreynol'
p64
sa(dp65
S'date'
p66
V2015-03-22T16:39:17.484Z
p67
sS'sup_id'
p68
I1
sS'sender_id'
p69
S'djreynol'
p70
sasS'user_id'
p71
g31
sS'friends_list'
p72
(lp73
sS'full_name'
p74
S'Nik Klassen'
p75
ssS'user2'
p76
(dp77
S'sups'
p78
(lp79
sS'user_id'
p80
g76
sS'friends_list'
p81
(lp82
sS'full_name'
p83
S'White Chedda'
p84
ssS'user3'
p85
(dp86
S'sups'
p87
(lp88
sS'user_id'
p89
g85
sS'full_name'
p90
S'The King'
p91
sS'friends_list'
p92
(lp93
ssS'user1'
p94
(dp95
S'sups'
p96
(lp97
sS'user_id'
p98
g94
sS'full_name'
p99
S'Julian ReyRey'
p100
sS'friends_list'
p101
(lp102
sss.