(dp0
S'users'
p1
(dp2
S'nklasse'
p3
(dp4
S'sups'
p5
(lp6
sS'user_id'
p7
g3
sS'friends_list'
p8
(lp9
sS'full_name'
p10
S'Yo'
p11
ssS'user2'
p12
(dp13
S'sups'
p14
(lp15
sS'user_id'
p16
g12
sS'friends_list'
p17
(lp18
sS'full_name'
p19
S'White Chedda'
p20
ssS'user3'
p21
(dp22
S'sups'
p23
(lp24
sS'user_id'
p25
g21
sS'full_name'
p26
S'The King'
p27
sS'friends_list'
p28
(lp29
ssS'user1'
p30
(dp31
S'sups'
p32
(lp33
sS'user_id'
p34
g30
sS'full_name'
p35
S'Julian ReyRey'
p36
sS'friends_list'
p37
(lp38
ssS'Hooligan455'
p39
(dp40
S'sups'
p41
(lp42
sS'user_id'
p43
g39
sS'full_name'
p44
S'Dan'
p45
sS'friends_list'
p46
(lp47
ssVtest88
p48
(dp49
S'sups'
p50
(lp51
sS'user_id'
p52
g48
sS'friends_list'
p53
(lp54
sS'full_name'
p55
Vdjr
p56
ssS'Foo'
p57
(dp58
S'sups'
p59
(lp60
sS'user_id'
p61
g57
sS'full_name'
p62
S'bar'
p63
sS'friends_list'
p64
(lp65
ssS'farnsworth'
p66
(dp67
S'sups'
p68
(lp69
(dp70
S'date'
p71
V28/3/2015
p72
sS'sup_id'
p73
I1427582039060
sS'sender_id'
p74
S'djreynol'
p75
sa(dp76
S'date'
p77
V28/3/2015
p78
sS'sup_id'
p79
I1427582098344
sS'sender_id'
p80
S'djreynol'
p81
sa(dp82
S'date'
p83
V28/3/2015
p84
sS'sup_id'
p85
I1427582204649
sS'sender_id'
p86
S'djreynol'
p87
sasS'user_id'
p88
g66
sS'friends_list'
p89
(lp90
sS'full_name'
p91
S'My farnsworth'
p92
ssS'djreynol'
p93
(dp94
S'sups'
p95
(lp96
(dp97
S'date'
p98
V29/3/2015
p99
sS'sup_id'
p100
V1427656950449
p101
sS'sender_id'
p102
S'djreynol'
p103
sa(dp104
S'date'
p105
V29/3/2015
p106
sS'sup_id'
p107
V1427658791883
p108
sS'sender_id'
p109
S'djreynol'
p110
sasS'user_id'
p111
g93
sS'full_name'
p112
S'Dan Reynolds'
p113
sS'friends_list'
p114
(lp115
Vdjreynol
p116
aVfarnsworth
p117
aVtest66
p118
aVndklasse
p119
assS'newguy'
p120
(dp121
S'sups'
p122
(lp123
sS'user_id'
p124
g120
sS'friends_list'
p125
(lp126
sS'full_name'
p127
S'Dan'
p128
ssS'test66'
p129
(dp130
S'sups'
p131
(lp132
(dp133
S'date'
p134
V23/3/2015
p135
sS'sup_id'
p136
I1427140248163
sS'sender_id'
p137
S'test66'
p138
sa(dp139
S'date'
p140
V28/3/2015
p141
sS'sup_id'
p142
I1427582115854
sS'sender_id'
p143
S'djreynol'
p144
sa(dp145
S'date'
p146
V28/3/2015
p147
sS'sup_id'
p148
I1427582254290
sS'sender_id'
p149
S'djreynol'
p150
sa(dp151
S'date'
p152
V28/3/2015
p153
sS'sup_id'
p154
I1427582274794
sS'sender_id'
p155
S'djreynol'
p156
sa(dp157
S'date'
p158
V28/3/2015
p159
sS'sup_id'
p160
I1427582323391
sS'sender_id'
p161
S'djreynol'
p162
sasS'user_id'
p163
g129
sS'friends_list'
p164
(lp165
Vtest66
p166
asS'full_name'
p167
S'Heroes'
p168
ssS'test66 '
p169
(dp170
S'sups'
p171
(lp172
sS'user_id'
p173
g169
sS'full_name'
p174
S'Heroes'
p175
sS'friends_list'
p176
(lp177
ssVtest68
p178
(dp179
S'sups'
p180
(lp181
sS'user_id'
p182
g178
sS'friends_list'
p183
(lp184
sS'full_name'
p185
VReynolds
p186
ssVtest69
p187
(dp188
S'sups'
p189
(lp190
sS'user_id'
p191
g187
sS'friends_list'
p192
(lp193
sS'full_name'
p194
VReynolds
p195
ssS'Heroes'
p196
(dp197
S'sups'
p198
(lp199
sS'user_id'
p200
g196
sS'full_name'
p201
S'Mcfee'
p202
sS'friends_list'
p203
(lp204
VHeroes
p205
assS'reyrey'
p206
(dp207
S'sups'
p208
(lp209
(dp210
S'date'
p211
V23/3/2015
p212
sS'sup_id'
p213
I1427139150503
sS'sender_id'
p214
S'reyrey'
p215
sasS'user_id'
p216
g206
sS'full_name'
p217
S'DJ Rey Rey'
p218
sS'friends_list'
p219
(lp220
Vdjreynol
p221
aVreyrey
p222
assS'test67'
p223
(dp224
S'sups'
p225
(lp226
sS'user_id'
p227
g223
sS'full_name'
p228
S'hh'
p229
sS'friends_list'
p230
(lp231
ssS'ndklasse'
p232
(dp233
S'sups'
p234
(lp235
(dp236
S'date'
p237
V28/3/2015
p238
sS'sup_id'
p239
I1427583632058
sS'sender_id'
p240
S'ndklasse'
p241
sa(dp242
S'date'
p243
V28/3/2015
p244
sS'sup_id'
p245
I1427583637376
sS'sender_id'
p246
S'ndklasse'
p247
sa(dp248
S'date'
p249
V28/3/2015
p250
sS'sup_id'
p251
I1427583638539
sS'sender_id'
p252
S'ndklasse'
p253
sa(dp254
S'date'
p255
V28/3/2015
p256
sS'sup_id'
p257
I1427583649331
sS'sender_id'
p258
S'ndklasse'
p259
sa(dp260
S'date'
p261
V28/3/2015
p262
sS'sup_id'
p263
I1427583650404
sS'sender_id'
p264
S'ndklasse'
p265
sa(dp266
S'date'
p267
V28/3/2015
p268
sS'sup_id'
p269
I1427583651456
sS'sender_id'
p270
S'ndklasse'
p271
sa(dp272
S'date'
p273
V28/3/2015
p274
sS'sup_id'
p275
I1427583851844
sS'sender_id'
p276
S'ndklasse'
p277
sa(dp278
S'date'
p279
V28/3/2015
p280
sS'sup_id'
p281
I1427583962181
sS'sender_id'
p282
S'ndklasse'
p283
sa(dp284
S'date'
p285
V28/3/2015
p286
sS'sup_id'
p287
I1427583965894
sS'sender_id'
p288
S'ndklasse'
p289
sa(dp290
S'date'
p291
V28/3/2015
p292
sS'sup_id'
p293
I1427584238151
sS'sender_id'
p294
S'ndklasse'
p295
sasS'user_id'
p296
g232
sS'friends_list'
p297
(lp298
Vdjreynol
p299
aVndklasse
p300
asS'full_name'
p301
S'Nik Klassen'
p302
ssS'djreyn3'
p303
(dp304
S'sups'
p305
(lp306
sS'user_id'
p307
g303
sS'full_name'
p308
S'Dan'
p309
sS'friends_list'
p310
(lp311
Vdjreyn3
p312
assS'djreyn2'
p313
(dp314
S'sups'
p315
(lp316
sS'user_id'
p317
g313
sS'friends_list'
p318
(lp319
sS'full_name'
p320
S'Dan2'
p321
ssVtest99
p322
(dp323
S'sups'
p324
(lp325
sS'user_id'
p326
g322
sS'friends_list'
p327
(lp328
sS'full_name'
p329
VDJ
p330
ssS'dddddahrjakr'
p331
(dp332
S'sups'
p333
(lp334
sS'user_id'
p335
g331
sS'full_name'
p336
S'dan'
p337
sS'friends_list'
p338
(lp339
Vdjreynol
p340
assS'HeyNik'
p341
(dp342
S'sups'
p343
(lp344
sS'user_id'
p345
g341
sS'friends_list'
p346
(lp347
sS'full_name'
p348
S'Nik'
p349
ssS'newguy2'
p350
(dp351
S'sups'
p352
(lp353
sS'user_id'
p354
g350
sS'full_name'
p355
S'Dan'
p356
sS'friends_list'
p357
(lp358
Vdjreynol
p359
assS'Rohan'
p360
(dp361
S'sups'
p362
(lp363
sS'user_id'
p364
g360
sS'friends_list'
p365
(lp366
VRohan
p367
asS'full_name'
p368
S'Riders of'
p369
ssS'kjreynol'
p370
(dp371
S'sups'
p372
(lp373
sS'user_id'
p374
g370
sS'friends_list'
p375
(lp376
sS'full_name'
p377
S'D'
p378
ssS'Farnsworth'
p379
(dp380
S'sups'
p381
(lp382
sS'user_id'
p383
g379
sS'friends_list'
p384
(lp385
sS'full_name'
p386
S'Nik Klassen'
p387
ssVtest71
p388
(dp389
S'sups'
p390
(lp391
sS'user_id'
p392
g388
sS'friends_list'
p393
(lp394
sS'full_name'
p395
Vtester
p396
ssVtest70
p397
(dp398
S'sups'
p399
(lp400
sS'user_id'
p401
g397
sS'friends_list'
p402
(lp403
sS'full_name'
p404
Vdjrey
p405
sss.