(dp0
S'users'
p1
(dp2
S'djreynol'
p3
(dp4
S'sups'
p5
(lp6
sS'user_id'
p7
g3
sS'full_name'
p8
S'Dan Reynolds'
p9
sS'friends_list'
p10
(lp11
Vndklasse
p12
assS'ndklasse'
p13
(dp14
S'sups'
p15
(lp16
sS'user_id'
p17
g13
sS'friends_list'
p18
(lp19
sS'full_name'
p20
S'Nik Klassen'
p21
sss.