(dp0
S'users'
p1
(dp2
S'nklasse'
p3
(dp4
S'sups'
p5
(lp6
sS'user_id'
p7
g3
sS'friends_list'
p8
(lp9
sS'full_name'
p10
S'Yo'
p11
ssS'user2'
p12
(dp13
S'sups'
p14
(lp15
sS'user_id'
p16
g12
sS'friends_list'
p17
(lp18
sS'full_name'
p19
S'White Chedda'
p20
ssS'user3'
p21
(dp22
S'sups'
p23
(lp24
sS'user_id'
p25
g21
sS'full_name'
p26
S'The King'
p27
sS'friends_list'
p28
(lp29
ssS'user1'
p30
(dp31
S'sups'
p32
(lp33
sS'user_id'
p34
g30
sS'full_name'
p35
S'Julian ReyRey'
p36
sS'friends_list'
p37
(lp38
ssVtest88
p39
(dp40
S'sups'
p41
(lp42
sS'user_id'
p43
g39
sS'friends_list'
p44
(lp45
sS'full_name'
p46
Vdjr
p47
ssS'Foo'
p48
(dp49
S'sups'
p50
(lp51
sS'user_id'
p52
g48
sS'full_name'
p53
S'bar'
p54
sS'friends_list'
p55
(lp56
ssS'farnsworth'
p57
(dp58
S'sups'
p59
(lp60
(dp61
S'date'
p62
V28/3/2015
p63
sS'sup_id'
p64
I1427582039060
sS'sender_id'
p65
S'djreynol'
p66
sa(dp67
S'date'
p68
V28/3/2015
p69
sS'sup_id'
p70
I1427582098344
sS'sender_id'
p71
S'djreynol'
p72
sa(dp73
S'date'
p74
V28/3/2015
p75
sS'sup_id'
p76
I1427582204649
sS'sender_id'
p77
S'djreynol'
p78
sasS'user_id'
p79
g57
sS'friends_list'
p80
(lp81
sS'full_name'
p82
S'My farnsworth'
p83
ssS'djreynol'
p84
(dp85
S'sups'
p86
(lp87
(dp88
S'date'
p89
V23/3/2015
p90
sS'sup_id'
p91
I1427136292027
sS'sender_id'
p92
S'djreynol'
p93
sa(dp94
S'date'
p95
V23/3/2015
p96
sS'sup_id'
p97
I1427137516076
sS'sender_id'
p98
S'djreynol'
p99
sa(dp100
S'date'
p101
V23/3/2015
p102
sS'sup_id'
p103
I1427137525677
sS'sender_id'
p104
S'djreynol'
p105
sa(dp106
S'date'
p107
V23/3/2015
p108
sS'sup_id'
p109
I1427139084250
sS'sender_id'
p110
S'djreynol'
p111
sa(dp112
S'date'
p113
V28/3/2015
p114
sS'sup_id'
p115
I1427582580296
sS'sender_id'
p116
S'newguy2'
p117
sa(dp118
S'date'
p119
V28/3/2015
p120
sS'sup_id'
p121
I1427582761172
sS'sender_id'
p122
S'ndklasse'
p123
sa(dp124
S'date'
p125
V28/3/2015
p126
sS'sup_id'
p127
I1427583262632
sS'sender_id'
p128
S'ndklasse'
p129
sa(dp130
S'date'
p131
V28/3/2015
p132
sS'sup_id'
p133
I1427583360335
sS'sender_id'
p134
S'ndklasse'
p135
sa(dp136
S'date'
p137
V28/3/2015
p138
sS'sup_id'
p139
I1427583366354
sS'sender_id'
p140
S'ndklasse'
p141
sa(dp142
S'date'
p143
V28/3/2015
p144
sS'sup_id'
p145
I1427583385453
sS'sender_id'
p146
S'ndklasse'
p147
sasS'user_id'
p148
g84
sS'full_name'
p149
S'Dan Reynolds'
p150
sS'friends_list'
p151
(lp152
Vdjreynol
p153
aVfarnsworth
p154
aVtest66
p155
assS'newguy'
p156
(dp157
S'sups'
p158
(lp159
sS'user_id'
p160
g156
sS'friends_list'
p161
(lp162
sS'full_name'
p163
S'Dan'
p164
ssS'test66'
p165
(dp166
S'sups'
p167
(lp168
(dp169
S'date'
p170
V23/3/2015
p171
sS'sup_id'
p172
I1427140248163
sS'sender_id'
p173
S'test66'
p174
sa(dp175
S'date'
p176
V28/3/2015
p177
sS'sup_id'
p178
I1427582115854
sS'sender_id'
p179
S'djreynol'
p180
sa(dp181
S'date'
p182
V28/3/2015
p183
sS'sup_id'
p184
I1427582254290
sS'sender_id'
p185
S'djreynol'
p186
sa(dp187
S'date'
p188
V28/3/2015
p189
sS'sup_id'
p190
I1427582274794
sS'sender_id'
p191
S'djreynol'
p192
sa(dp193
S'date'
p194
V28/3/2015
p195
sS'sup_id'
p196
I1427582323391
sS'sender_id'
p197
S'djreynol'
p198
sasS'user_id'
p199
g165
sS'friends_list'
p200
(lp201
Vtest66
p202
asS'full_name'
p203
S'Heroes'
p204
ssS'test66 '
p205
(dp206
S'sups'
p207
(lp208
sS'user_id'
p209
g205
sS'full_name'
p210
S'Heroes'
p211
sS'friends_list'
p212
(lp213
ssVtest68
p214
(dp215
S'sups'
p216
(lp217
sS'user_id'
p218
g214
sS'friends_list'
p219
(lp220
sS'full_name'
p221
VReynolds
p222
ssVtest69
p223
(dp224
S'sups'
p225
(lp226
sS'user_id'
p227
g223
sS'friends_list'
p228
(lp229
sS'full_name'
p230
VReynolds
p231
ssS'reyrey'
p232
(dp233
S'sups'
p234
(lp235
(dp236
S'date'
p237
V23/3/2015
p238
sS'sup_id'
p239
I1427139150503
sS'sender_id'
p240
S'reyrey'
p241
sasS'user_id'
p242
g232
sS'full_name'
p243
S'DJ Rey Rey'
p244
sS'friends_list'
p245
(lp246
Vdjreynol
p247
aVreyrey
p248
assS'test67'
p249
(dp250
S'sups'
p251
(lp252
sS'user_id'
p253
g249
sS'full_name'
p254
S'hh'
p255
sS'friends_list'
p256
(lp257
ssS'ndklasse'
p258
(dp259
S'sups'
p260
(lp261
(dp262
S'date'
p263
V28/3/2015
p264
sS'sup_id'
p265
I1427583627158
sS'sender_id'
p266
S'ndklasse'
p267
sa(dp268
S'date'
p269
V28/3/2015
p270
sS'sup_id'
p271
I1427583632058
sS'sender_id'
p272
S'ndklasse'
p273
sa(dp274
S'date'
p275
V28/3/2015
p276
sS'sup_id'
p277
I1427583637376
sS'sender_id'
p278
S'ndklasse'
p279
sa(dp280
S'date'
p281
V28/3/2015
p282
sS'sup_id'
p283
I1427583638539
sS'sender_id'
p284
S'ndklasse'
p285
sa(dp286
S'date'
p287
V28/3/2015
p288
sS'sup_id'
p289
I1427583649331
sS'sender_id'
p290
S'ndklasse'
p291
sa(dp292
S'date'
p293
V28/3/2015
p294
sS'sup_id'
p295
I1427583650404
sS'sender_id'
p296
S'ndklasse'
p297
sa(dp298
S'date'
p299
V28/3/2015
p300
sS'sup_id'
p301
I1427583651456
sS'sender_id'
p302
S'ndklasse'
p303
sasS'user_id'
p304
g258
sS'friends_list'
p305
(lp306
Vdjreynol
p307
aVndklasse
p308
asS'full_name'
p309
S'Nik Klassen'
p310
ssVtest99
p311
(dp312
S'sups'
p313
(lp314
sS'user_id'
p315
g311
sS'friends_list'
p316
(lp317
sS'full_name'
p318
VDJ
p319
ssS'HeyNik'
p320
(dp321
S'sups'
p322
(lp323
sS'user_id'
p324
g320
sS'friends_list'
p325
(lp326
sS'full_name'
p327
S'Nik'
p328
ssS'newguy2'
p329
(dp330
S'sups'
p331
(lp332
sS'user_id'
p333
g329
sS'full_name'
p334
S'Dan'
p335
sS'friends_list'
p336
(lp337
Vdjreynol
p338
assS'Rohan'
p339
(dp340
S'sups'
p341
(lp342
sS'user_id'
p343
g339
sS'friends_list'
p344
(lp345
VRohan
p346
asS'full_name'
p347
S'Riders of'
p348
ssS'kjreynol'
p349
(dp350
S'sups'
p351
(lp352
sS'user_id'
p353
g349
sS'friends_list'
p354
(lp355
sS'full_name'
p356
S'D'
p357
ssS'Farnsworth'
p358
(dp359
S'sups'
p360
(lp361
sS'user_id'
p362
g358
sS'friends_list'
p363
(lp364
sS'full_name'
p365
S'Nik Klassen'
p366
ssVtest71
p367
(dp368
S'sups'
p369
(lp370
sS'user_id'
p371
g367
sS'friends_list'
p372
(lp373
sS'full_name'
p374
Vtester
p375
ssVtest70
p376
(dp377
S'sups'
p378
(lp379
sS'user_id'
p380
g376
sS'friends_list'
p381
(lp382
sS'full_name'
p383
Vdjrey
p384
sss.