(dp0
S'users'
p1
(dp2
S'HeyNik'
p3
(dp4
S'sups'
p5
(lp6
sS'user_id'
p7
g3
sS'full_name'
p8
S'Nik'
p9
sS'friends_list'
p10
(lp11
ssS'user3'
p12
(dp13
S'sups'
p14
(lp15
sS'user_id'
p16
g12
sS'friends_list'
p17
(lp18
sS'full_name'
p19
S'The King'
p20
ssS'user2'
p21
(dp22
S'sups'
p23
(lp24
sS'user_id'
p25
g21
sS'full_name'
p26
S'White Chedda'
p27
sS'friends_list'
p28
(lp29
ssS'djreynol'
p30
(dp31
S'sups'
p32
(lp33
(dp34
S'date'
p35
V23/3/2015
p36
sS'sup_id'
p37
I1427136292027
sS'sender_id'
p38
S'djreynol'
p39
sa(dp40
S'date'
p41
V23/3/2015
p42
sS'sup_id'
p43
I1427137516076
sS'sender_id'
p44
S'djreynol'
p45
sa(dp46
S'date'
p47
V23/3/2015
p48
sS'sup_id'
p49
I1427137525677
sS'sender_id'
p50
S'djreynol'
p51
sa(dp52
S'date'
p53
V23/3/2015
p54
sS'sup_id'
p55
I1427139084250
sS'sender_id'
p56
S'djreynol'
p57
sasS'user_id'
p58
g30
sS'friends_list'
p59
(lp60
Vdjreynol
p61
aVfarnsworth
p62
aVtest66
p63
asS'full_name'
p64
S'Dan Reynolds'
p65
ssS'reyrey'
p66
(dp67
S'sups'
p68
(lp69
(dp70
S'date'
p71
V23/3/2015
p72
sS'sup_id'
p73
I1427139150503
sS'sender_id'
p74
S'reyrey'
p75
sasS'user_id'
p76
g66
sS'friends_list'
p77
(lp78
Vdjreynol
p79
aVreyrey
p80
asS'full_name'
p81
S'DJ Rey Rey'
p82
ssS'user1'
p83
(dp84
S'sups'
p85
(lp86
sS'user_id'
p87
g83
sS'friends_list'
p88
(lp89
sS'full_name'
p90
S'Julian ReyRey'
p91
ssS'test67'
p92
(dp93
S'sups'
p94
(lp95
sS'user_id'
p96
g92
sS'friends_list'
p97
(lp98
sS'full_name'
p99
S'hh'
p100
ssS'kjreynol'
p101
(dp102
S'sups'
p103
(lp104
sS'user_id'
p105
g101
sS'full_name'
p106
S'D'
p107
sS'friends_list'
p108
(lp109
ssS'ndklasse'
p110
(dp111
S'sups'
p112
(lp113
(dp114
S'date'
p115
V2015-03-22T15:57:02.315Z
p116
sS'sup_id'
p117
I1
sS'sender_id'
p118
S'djreynol'
p119
sa(dp120
S'date'
p121
V2015-03-22T16:36:15.064Z
p122
sS'sup_id'
p123
I1
sS'sender_id'
p124
S'djreynol'
p125
sa(dp126
S'date'
p127
V2015-03-22T16:37:03.463Z
p128
sS'sup_id'
p129
I1
sS'sender_id'
p130
S'djreynol'
p131
sa(dp132
S'date'
p133
V2015-03-22T16:37:45.748Z
p134
sS'sup_id'
p135
I1
sS'sender_id'
p136
S'djreynol'
p137
sa(dp138
S'date'
p139
V2015-03-22T16:38:12.058Z
p140
sS'sup_id'
p141
I1
sS'sender_id'
p142
S'djreynol'
p143
sa(dp144
S'date'
p145
V2015-03-22T16:39:17.484Z
p146
sS'sup_id'
p147
I1
sS'sender_id'
p148
S'djreynol'
p149
sasS'user_id'
p150
g110
sS'full_name'
p151
S'Nik Klassen'
p152
sS'friends_list'
p153
(lp154
ssVtest68
p155
(dp156
S'sups'
p157
(lp158
sS'user_id'
p159
g155
sS'full_name'
p160
VReynolds
p161
sS'friends_list'
p162
(lp163
ssS'Rohan'
p164
(dp165
S'sups'
p166
(lp167
sS'user_id'
p168
g164
sS'full_name'
p169
S'Riders of'
p170
sS'friends_list'
p171
(lp172
VRohan
p173
assS'test66'
p174
(dp175
S'sups'
p176
(lp177
(dp178
S'date'
p179
V23/3/2015
p180
sS'sup_id'
p181
I1427140248163
sS'sender_id'
p182
S'test66'
p183
sasS'user_id'
p184
g174
sS'full_name'
p185
S'Heroes'
p186
sS'friends_list'
p187
(lp188
Vtest66
p189
assS'test66 '
p190
(dp191
S'sups'
p192
(lp193
sS'user_id'
p194
g190
sS'friends_list'
p195
(lp196
sS'full_name'
p197
S'Heroes'
p198
ssVtest99
p199
(dp200
S'sups'
p201
(lp202
sS'user_id'
p203
g199
sS'full_name'
p204
VDJ
p205
sS'friends_list'
p206
(lp207
ssVtest69
p208
(dp209
S'sups'
p210
(lp211
sS'user_id'
p212
g208
sS'full_name'
p213
VReynolds
p214
sS'friends_list'
p215
(lp216
ssVtest88
p217
(dp218
S'sups'
p219
(lp220
sS'user_id'
p221
g217
sS'full_name'
p222
Vdjr
p223
sS'friends_list'
p224
(lp225
ssS'Foo'
p226
(dp227
S'sups'
p228
(lp229
sS'user_id'
p230
g226
sS'friends_list'
p231
(lp232
sS'full_name'
p233
S'bar'
p234
ssS'farnsworth'
p235
(dp236
S'sups'
p237
(lp238
sS'user_id'
p239
g235
sS'full_name'
p240
S'My farnsworth'
p241
sS'friends_list'
p242
(lp243
ssVtest71
p244
(dp245
S'sups'
p246
(lp247
sS'user_id'
p248
g244
sS'full_name'
p249
Vtester
p250
sS'friends_list'
p251
(lp252
ssVtest70
p253
(dp254
S'sups'
p255
(lp256
sS'user_id'
p257
g253
sS'full_name'
p258
Vdjrey
p259
sS'friends_list'
p260
(lp261
sss.